; Function Attrs: nounwind uwtable
define dso_local void @EventTriggerCollectCreateOpClass(ptr noundef %0, i32 noundef %1, ptr noundef %2, ptr noundef %3) local_unnamed_addr #0 {
  %5 = load ptr, ptr @currentEventTriggerState, align 8
  %.not = icmp eq ptr %5, null
  br i1 %.not, label %29, label %6

6:                                                ; preds = %4
  %7 = getelementptr inbounds nuw i8, ptr %5, i64 28
  %8 = load i8, ptr %7, align 4, !range !9, !noundef !10
  %9 = trunc nuw i8 %8 to i1
  br i1 %9, label %29, label %10

10:                                               ; preds = %6
  %11 = load ptr, ptr %5, align 8
  %12 = load ptr, ptr @CurrentMemoryContext, align 8
  store ptr %11, ptr @CurrentMemoryContext, align 8
  %13 = tail call ptr @palloc0(i64 noundef 56) #16
  store i32 5, ptr %13, align 8
  %14 = load i8, ptr @creating_extension, align 1, !range !9, !noundef !10
  %15 = getelementptr inbounds nuw i8, ptr %13, i64 4
  store i8 %14, ptr %15, align 4
  %16 = getelementptr inbounds nuw i8, ptr %13, i64 16
  store i32 2616, ptr %16, align 8
  %17 = getelementptr inbounds nuw i8, ptr %13, i64 20
  store i32 %1, ptr %17, align 4
  %18 = getelementptr inbounds nuw i8, ptr %13, i64 24
  store i32 0, ptr %18, align 8
  %19 = getelementptr inbounds nuw i8, ptr %13, i64 32
  store ptr %2, ptr %19, align 8
  %20 = getelementptr inbounds nuw i8, ptr %13, i64 40
  store ptr %3, ptr %20, align 8
  %21 = tail call ptr @copyObjectImpl(ptr noundef %0) #16
  %22 = getelementptr inbounds nuw i8, ptr %13, i64 8
  store ptr %21, ptr %22, align 8
  %23 = load ptr, ptr @currentEventTriggerState, align 8
  %24 = getelementptr inbounds nuw i8, ptr %23, i64 40
  %25 = load ptr, ptr %24, align 8
  %26 = tail call ptr @lappend(ptr noundef %25, ptr noundef nonnull %13) #16
  %27 = load ptr, ptr @currentEventTriggerState, align 8
  %28 = getelementptr inbounds nuw i8, ptr %27, i64 40
  store ptr %26, ptr %28, align 8
  store ptr %12, ptr @CurrentMemoryContext, align 8
  br label %29

29:                                               ; preds = %4, %6, %10
  ret void
}